; Function Attrs: mustprogress uwtable
define internal void @_ZNK6google8protobuf8compiler3cpp12_GLOBAL__N_112RepeatedEnum32GenerateCopyAggregateInitializerEPNS0_2io7PrinterE(ptr nocapture noundef nonnull readonly align 8 dereferenceable(105) %this, ptr noundef nonnull %p) unnamed_addr #3 align 2 {
entry:
  tail call void @_ZN6google8protobuf2io7Printer4EmitEN4absl12lts_202308024SpanIKNS2_3SubEEESt17basic_string_viewIcSt11char_traitsIcEENS2_14SourceLocationE(ptr noundef nonnull align 8 dereferenceable(256) %p, ptr null, i64 0, i64 56, ptr nonnull @.str.81)
  %has_cached_size_ = getelementptr inbounds i8, ptr %this, i64 104
  %0 = load i8, ptr %has_cached_size_, align 8
  %1 = and i8 %0, 1
  %tobool.not = icmp eq i8 %1, 0
  br i1 %tobool.not, label %if.end, label %if.then

if.then:                                          ; preds = %entry
  tail call void @_ZN6google8protobuf2io7Printer4EmitEN4absl12lts_202308024SpanIKNS2_3SubEEESt17basic_string_viewIcSt11char_traitsIcEENS2_14SourceLocationE(ptr noundef nonnull align 8 dereferenceable(256) %p, ptr null, i64 0, i64 49, ptr nonnull @.str.79)
  br label %if.end

if.end:                                           ; preds = %if.then, %entry
  ret void
}